target datalayout = "e-m:e-p270:32:32-p271:32:32-p272:64:64-i64:64-i128:128-f80:128-n8:16:32:64-S128"
target triple = "x86_64-pc-linux-gnu"

; Function Attrs: nounwind uwtable
define internal i32 @convert_der_to_raw_single_int(ptr noundef %0, i64 noundef %1, ptr noundef %2, i64 noundef %3) #0 {
  %5 = alloca i32, align 4
  %6 = alloca ptr, align 8
  %7 = alloca i64, align 8
  %8 = alloca ptr, align 8
  %9 = alloca i64, align 8
  %10 = alloca ptr, align 8
  %11 = alloca i32, align 4
  %12 = alloca i64, align 8
  %13 = alloca i64, align 8
  %14 = alloca i32, align 4
  store ptr %0, ptr %6, align 8, !tbaa !20
  store i64 %1, ptr %7, align 8, !tbaa !9
  store ptr %2, ptr %8, align 8, !tbaa !20
  store i64 %3, ptr %9, align 8, !tbaa !9
  call void @llvm.lifetime.start.p0(i64 8, ptr %10) #5
  %15 = load ptr, ptr %6, align 8, !tbaa !20
  store ptr %15, ptr %10, align 8, !tbaa !20
  call void @llvm.lifetime.start.p0(i64 4, ptr %11) #5
  store i32 -110, ptr %11, align 4, !tbaa !3
  call void @llvm.lifetime.start.p0(i64 8, ptr %12) #5
  call void @llvm.lifetime.start.p0(i64 8, ptr %13) #5
  store i64 0, ptr %13, align 8, !tbaa !9
  %16 = load ptr, ptr %10, align 8, !tbaa !20
  %17 = load i64, ptr %7, align 8, !tbaa !9
  %18 = getelementptr inbounds nuw i8, ptr %16, i64 %17
  %19 = call i32 @mbedtls_asn1_get_tag(ptr noundef %10, ptr noundef %18, ptr noundef %12, i32 noundef 2)
  store i32 %19, ptr %11, align 4, !tbaa !3
  %20 = load i32, ptr %11, align 4, !tbaa !3
  %21 = icmp ne i32 %20, 0
  br i1 %21, label %22, label %24

22:                                               ; preds = %4
  %23 = load i32, ptr %11, align 4, !tbaa !3
  store i32 %23, ptr %5, align 4
  store i32 1, ptr %14, align 4
  br label %76

24:                                               ; preds = %4
  %25 = load i64, ptr %12, align 8, !tbaa !9
  %26 = icmp eq i64 %25, 0
  br i1 %26, label %33, label %27

27:                                               ; preds = %24
  %28 = load ptr, ptr %10, align 8, !tbaa !20
  %29 = load i8, ptr %28, align 1, !tbaa !19
  %30 = zext i8 %29 to i32
  %31 = and i32 %30, 128
  %32 = icmp ne i32 %31, 0
  br i1 %32, label %33, label %34

33:                                               ; preds = %27, %24
  store i32 -104, ptr %5, align 4
  store i32 1, ptr %14, align 4
  br label %76

34:                                               ; preds = %27
  %35 = load ptr, ptr %10, align 8, !tbaa !20
  %36 = load i8, ptr %35, align 1, !tbaa !19
  %37 = zext i8 %36 to i32
  %38 = icmp eq i32 %37, 0
  br i1 %38, label %39, label %53

39:                                               ; preds = %34
  %40 = load ptr, ptr %10, align 8, !tbaa !20
  %41 = getelementptr inbounds nuw i8, ptr %40, i32 1
  store ptr %41, ptr %10, align 8, !tbaa !20
  %42 = load i64, ptr %12, align 8, !tbaa !9
  %43 = add i64 %42, -1
  store i64 %43, ptr %12, align 8, !tbaa !9
  %44 = load i64, ptr %12, align 8, !tbaa !9
  %45 = icmp ugt i64 %44, 0
  br i1 %45, label %46, label %52

46:                                               ; preds = %39
  %47 = load ptr, ptr %10, align 8, !tbaa !20
  %48 = load i8, ptr %47, align 1, !tbaa !19
  %49 = zext i8 %48 to i32
  %50 = icmp eq i32 %49, 0
  br i1 %50, label %51, label %52

51:                                               ; preds = %46
  store i32 -104, ptr %5, align 4
  store i32 1, ptr %14, align 4
  br label %76

52:                                               ; preds = %46, %39
  br label %53

53:                                               ; preds = %52, %34
  %54 = load i64, ptr %12, align 8, !tbaa !9
  %55 = load i64, ptr %9, align 8, !tbaa !9
  %56 = icmp ugt i64 %54, %55
  br i1 %56, label %57, label %58

57:                                               ; preds = %53
  store i32 -104, ptr %5, align 4
  store i32 1, ptr %14, align 4
  br label %76

58:                                               ; preds = %53
  %59 = load i64, ptr %9, align 8, !tbaa !9
  %60 = load i64, ptr %12, align 8, !tbaa !9
  %61 = sub i64 %59, %60
  store i64 %61, ptr %13, align 8, !tbaa !9
  %62 = load ptr, ptr %8, align 8, !tbaa !20
  %63 = load i64, ptr %13, align 8, !tbaa !9
  %64 = getelementptr inbounds nuw i8, ptr %62, i64 %63
  %65 = load ptr, ptr %10, align 8, !tbaa !20
  %66 = load i64, ptr %12, align 8, !tbaa !9
  call void @llvm.memcpy.p0.p0.i64(ptr align 1 %64, ptr align 1 %65, i64 %66, i1 false)
  %67 = load i64, ptr %12, align 8, !tbaa !9
  %68 = load ptr, ptr %10, align 8, !tbaa !20
  %69 = getelementptr inbounds nuw i8, ptr %68, i64 %67
  store ptr %69, ptr %10, align 8, !tbaa !20
  %70 = load ptr, ptr %10, align 8, !tbaa !20
  %71 = load ptr, ptr %6, align 8, !tbaa !20
  %72 = ptrtoint ptr %70 to i64
  %73 = ptrtoint ptr %71 to i64
  %74 = sub i64 %72, %73
  %75 = trunc i64 %74 to i32
  store i32 %75, ptr %5, align 4
  store i32 1, ptr %14, align 4
  br label %76

76:                                               ; preds = %58, %57, %51, %33, %22
  call void @llvm.lifetime.end.p0(i64 8, ptr %13) #5
  call void @llvm.lifetime.end.p0(i64 8, ptr %12) #5
  call void @llvm.lifetime.end.p0(i64 4, ptr %11) #5
  call void @llvm.lifetime.end.p0(i64 8, ptr %10) #5
  %77 = load i32, ptr %5, align 4
  ret i32 %77
}

; Function Attrs: nounwind uwtable
define hidden i32 @mbedtls_ecdsa_der_to_raw(i64 noundef %0, ptr noundef %1, i64 noundef %2, ptr noundef %3, i64 noundef %4, ptr noundef %5) #0 {
  %7 = alloca i32, align 4
  %8 = alloca i64, align 8
  %9 = alloca ptr, align 8
  %10 = alloca i64, align 8
  %11 = alloca ptr, align 8
  %12 = alloca i64, align 8
  %13 = alloca ptr, align 8
  %14 = alloca [132 x i8], align 16
  %15 = alloca ptr, align 8
  %16 = alloca i64, align 8
  %17 = alloca i64, align 8
  %18 = alloca i32, align 4
  %19 = alloca i32, align 4
  store i64 %0, ptr %8, align 8, !tbaa !9
  store ptr %1, ptr %9, align 8, !tbaa !20
  store i64 %2, ptr %10, align 8, !tbaa !9
  store ptr %3, ptr %11, align 8, !tbaa !20
  store i64 %4, ptr %12, align 8, !tbaa !9
  store ptr %5, ptr %13, align 8, !tbaa !17
  call void @llvm.lifetime.start.p0(i64 132, ptr %14) #5
  call void @llvm.lifetime.start.p0(i64 8, ptr %15) #5
  %20 = load ptr, ptr %9, align 8, !tbaa !20
  store ptr %20, ptr %15, align 8, !tbaa !20
  call void @llvm.lifetime.start.p0(i64 8, ptr %16) #5
  call void @llvm.lifetime.start.p0(i64 8, ptr %17) #5
  %21 = load i64, ptr %8, align 8, !tbaa !9
  %22 = add i64 %21, 7
  %23 = udiv i64 %22, 8
  store i64 %23, ptr %17, align 8, !tbaa !9
  call void @llvm.lifetime.start.p0(i64 4, ptr %18) #5
  %24 = load i64, ptr %12, align 8, !tbaa !9
  %25 = load i64, ptr %17, align 8, !tbaa !9
  %26 = mul i64 %25, 2
  %27 = icmp ult i64 %24, %26
  br i1 %27, label %28, label %29

28:                                               ; preds = %6
  store i32 -108, ptr %7, align 4
  store i32 1, ptr %19, align 4
  br label %101

29:                                               ; preds = %6
  %30 = load i64, ptr %17, align 8, !tbaa !9
  %31 = mul i64 2, %30
  %32 = icmp ugt i64 %31, 132
  br i1 %32, label %33, label %34

33:                                               ; preds = %29
  store i32 -108, ptr %7, align 4
  store i32 1, ptr %19, align 4
  br label %101

34:                                               ; preds = %29
  %35 = load ptr, ptr %9, align 8, !tbaa !20
  %36 = load i64, ptr %10, align 8, !tbaa !9
  %37 = getelementptr inbounds nuw i8, ptr %35, i64 %36
  %38 = call i32 @mbedtls_asn1_get_tag(ptr noundef %15, ptr noundef %37, ptr noundef %16, i32 noundef 48)
  store i32 %38, ptr %18, align 4, !tbaa !3
  %39 = load i32, ptr %18, align 4, !tbaa !3
  %40 = icmp ne i32 %39, 0
  br i1 %40, label %41, label %43

41:                                               ; preds = %34
  %42 = load i32, ptr %18, align 4, !tbaa !3
  store i32 %42, ptr %7, align 4
  store i32 1, ptr %19, align 4
  br label %101

43:                                               ; preds = %34
  %44 = getelementptr inbounds [132 x i8], ptr %14, i64 0, i64 0
  %45 = load i64, ptr %17, align 8, !tbaa !9
  %46 = mul i64 2, %45
  call void @llvm.memset.p0.i64(ptr align 16 %44, i8 0, i64 %46, i1 false)
  %47 = load ptr, ptr %15, align 8, !tbaa !20
  %48 = load i64, ptr %16, align 8, !tbaa !9
  %49 = getelementptr inbounds [132 x i8], ptr %14, i64 0, i64 0
  %50 = load i64, ptr %17, align 8, !tbaa !9
  %51 = call i32 @convert_der_to_raw_single_int(ptr noundef %47, i64 noundef %48, ptr noundef %49, i64 noundef %50)
  store i32 %51, ptr %18, align 4, !tbaa !3
  %52 = load i32, ptr %18, align 4, !tbaa !3
  %53 = icmp slt i32 %52, 0
  br i1 %53, label %54, label %56

54:                                               ; preds = %43
  %55 = load i32, ptr %18, align 4, !tbaa !3
  store i32 %55, ptr %7, align 4
  store i32 1, ptr %19, align 4
  br label %101

56:                                               ; preds = %43
  %57 = load i32, ptr %18, align 4, !tbaa !3
  %58 = load ptr, ptr %15, align 8, !tbaa !20
  %59 = sext i32 %57 to i64
  %60 = getelementptr inbounds i8, ptr %58, i64 %59
  store ptr %60, ptr %15, align 8, !tbaa !20
  %61 = load i32, ptr %18, align 4, !tbaa !3
  %62 = sext i32 %61 to i64
  %63 = load i64, ptr %16, align 8, !tbaa !9
  %64 = sub i64 %63, %62
  store i64 %64, ptr %16, align 8, !tbaa !9
  %65 = load ptr, ptr %15, align 8, !tbaa !20
  %66 = load i64, ptr %16, align 8, !tbaa !9
  %67 = getelementptr inbounds [132 x i8], ptr %14, i64 0, i64 0
  %68 = load i64, ptr %17, align 8, !tbaa !9
  %69 = getelementptr inbounds nuw i8, ptr %67, i64 %68
  %70 = load i64, ptr %17, align 8, !tbaa !9
  %71 = call i32 @convert_der_to_raw_single_int(ptr noundef %65, i64 noundef %66, ptr noundef %69, i64 noundef %70)
  store i32 %71, ptr %18, align 4, !tbaa !3
  %72 = load i32, ptr %18, align 4, !tbaa !3
  %73 = icmp slt i32 %72, 0
  br i1 %73, label %74, label %76

74:                                               ; preds = %56
  %75 = load i32, ptr %18, align 4, !tbaa !3
  store i32 %75, ptr %7, align 4
  store i32 1, ptr %19, align 4
  br label %101

76:                                               ; preds = %56
  %77 = load i32, ptr %18, align 4, !tbaa !3
  %78 = load ptr, ptr %15, align 8, !tbaa !20
  %79 = sext i32 %77 to i64
  %80 = getelementptr inbounds i8, ptr %78, i64 %79
  store ptr %80, ptr %15, align 8, !tbaa !20
  %81 = load i32, ptr %18, align 4, !tbaa !3
  %82 = sext i32 %81 to i64
  %83 = load i64, ptr %16, align 8, !tbaa !9
  %84 = sub i64 %83, %82
  store i64 %84, ptr %16, align 8, !tbaa !9
  %85 = load ptr, ptr %15, align 8, !tbaa !20
  %86 = load ptr, ptr %9, align 8, !tbaa !20
  %87 = ptrtoint ptr %85 to i64
  %88 = ptrtoint ptr %86 to i64
  %89 = sub i64 %87, %88
  %90 = load i64, ptr %10, align 8, !tbaa !9
  %91 = icmp ne i64 %89, %90
  br i1 %91, label %92, label %93

92:                                               ; preds = %76
  store i32 -102, ptr %7, align 4
  store i32 1, ptr %19, align 4
  br label %101

93:                                               ; preds = %76
  %94 = load ptr, ptr %11, align 8, !tbaa !20
  %95 = getelementptr inbounds [132 x i8], ptr %14, i64 0, i64 0
  %96 = load i64, ptr %17, align 8, !tbaa !9
  %97 = mul i64 2, %96
  call void @llvm.memcpy.p0.p0.i64(ptr align 1 %94, ptr align 16 %95, i64 %97, i1 false)
  %98 = load i64, ptr %17, align 8, !tbaa !9
  %99 = mul i64 2, %98
  %100 = load ptr, ptr %13, align 8, !tbaa !17
  store i64 %99, ptr %100, align 8, !tbaa !9
  store i32 0, ptr %7, align 4
  store i32 1, ptr %19, align 4
  br label %101

101:                                              ; preds = %93, %92, %74, %54, %41, %33, %28
  call void @llvm.lifetime.end.p0(i64 4, ptr %18) #5
  call void @llvm.lifetime.end.p0(i64 8, ptr %17) #5
  call void @llvm.lifetime.end.p0(i64 8, ptr %16) #5
  call void @llvm.lifetime.end.p0(i64 8, ptr %15) #5
  call void @llvm.lifetime.end.p0(i64 132, ptr %14) #5
  %102 = load i32, ptr %7, align 4
  ret i32 %102
}