; Function Attrs: nounwind uwtable
define hidden i32 @mbedtls_ecdsa_der_to_raw(i64 noundef %0, ptr noundef %1, i64 noundef %2, ptr noundef writeonly captures(none) %3, i64 noundef %4, ptr noundef writeonly captures(none) %5) local_unnamed_addr #1 {
  %7 = alloca ptr, align 8
  %8 = alloca i64, align 8
  %9 = alloca ptr, align 8
  %10 = alloca i64, align 8
  %11 = alloca [132 x i8], align 16
  %12 = alloca ptr, align 8
  %13 = alloca i64, align 8
  call void @llvm.lifetime.start.p0(i64 132, ptr nonnull %11) #7
  call void @llvm.lifetime.start.p0(i64 8, ptr nonnull %12) #7
  store ptr %1, ptr %12, align 8, !tbaa !15
  call void @llvm.lifetime.start.p0(i64 8, ptr nonnull %13) #7
  %14 = add i64 %0, 7
  %15 = lshr i64 %14, 3
  %16 = shl nuw nsw i64 %15, 1
  %17 = icmp ult i64 %4, %16
  %18 = icmp ugt i64 %14, 535
  %or.cond = or i1 %18, %17
  br i1 %or.cond, label %100, label %19

19:                                               ; preds = %6
  %20 = getelementptr inbounds nuw i8, ptr %1, i64 %2
  %21 = call i32 @mbedtls_asn1_get_tag(ptr noundef nonnull %12, ptr noundef %20, ptr noundef nonnull %13, i32 noundef 48) #7
  %.not = icmp eq i32 %21, 0
  br i1 %.not, label %22, label %100

22:                                               ; preds = %19
  call void @llvm.memset.p0.i64(ptr nonnull align 16 %11, i8 0, i64 %16, i1 false)
  %23 = load ptr, ptr %12, align 8, !tbaa !15
  %24 = load i64, ptr %13, align 8, !tbaa !11
  call void @llvm.lifetime.start.p0(i64 8, ptr nonnull %9) #7
  store ptr %23, ptr %9, align 8, !tbaa !15
  call void @llvm.lifetime.start.p0(i64 8, ptr nonnull %10) #7
  %25 = getelementptr inbounds nuw i8, ptr %23, i64 %24
  %26 = call i32 @mbedtls_asn1_get_tag(ptr noundef nonnull %9, ptr noundef %25, ptr noundef nonnull %10, i32 noundef 2) #7
  %.not.i = icmp eq i32 %26, 0
  br i1 %.not.i, label %27, label %convert_der_to_raw_single_int.exit

27:                                               ; preds = %22
  %28 = load i64, ptr %10, align 8, !tbaa !11
  %29 = icmp eq i64 %28, 0
  br i1 %29, label %convert_der_to_raw_single_int.exit.thread, label %30

30:                                               ; preds = %27
  %31 = load ptr, ptr %9, align 8, !tbaa !15
  %32 = load i8, ptr %31, align 1, !tbaa !13
  %.not12.i = icmp sgt i8 %32, -1
  br i1 %.not12.i, label %33, label %convert_der_to_raw_single_int.exit.thread

33:                                               ; preds = %30
  %34 = icmp eq i8 %32, 0
  br i1 %34, label %35, label %41

35:                                               ; preds = %33
  %36 = getelementptr inbounds nuw i8, ptr %31, i64 1
  store ptr %36, ptr %9, align 8, !tbaa !15
  %37 = add i64 %28, -1
  store i64 %37, ptr %10, align 8, !tbaa !11
  %.not13.i = icmp eq i64 %37, 0
  br i1 %.not13.i, label %.thread.i, label %38

38:                                               ; preds = %35
  %39 = load i8, ptr %36, align 1, !tbaa !13
  %40 = icmp eq i8 %39, 0
  br i1 %40, label %convert_der_to_raw_single_int.exit.thread, label %41

41:                                               ; preds = %38, %33
  %42 = phi ptr [ %36, %38 ], [ %31, %33 ]
  %43 = phi i64 [ %37, %38 ], [ %28, %33 ]
  %44 = icmp ugt i64 %43, %15
  br i1 %44, label %convert_der_to_raw_single_int.exit.thread, label %.thread.i

.thread.i:                                        ; preds = %41, %35
  %45 = phi i64 [ %43, %41 ], [ 0, %35 ]
  %46 = phi ptr [ %42, %41 ], [ %36, %35 ]
  %47 = sub nuw nsw i64 %15, %45
  %48 = getelementptr inbounds nuw i8, ptr %11, i64 %47
  call void @llvm.memcpy.p0.p0.i64(ptr nonnull align 1 %48, ptr nonnull align 1 %46, i64 %45, i1 false)
  %49 = getelementptr inbounds nuw i8, ptr %46, i64 %45
  %50 = ptrtoint ptr %49 to i64
  %51 = ptrtoint ptr %23 to i64
  %52 = sub i64 %50, %51
  %53 = trunc i64 %52 to i32
  br label %convert_der_to_raw_single_int.exit

convert_der_to_raw_single_int.exit.thread:        ; preds = %30, %27, %38, %41
  call void @llvm.lifetime.end.p0(i64 8, ptr nonnull %10) #7
  call void @llvm.lifetime.end.p0(i64 8, ptr nonnull %9) #7
  br label %100

convert_der_to_raw_single_int.exit:               ; preds = %22, %.thread.i
  %.0.i = phi i32 [ %53, %.thread.i ], [ %26, %22 ]
  call void @llvm.lifetime.end.p0(i64 8, ptr nonnull %10) #7
  call void @llvm.lifetime.end.p0(i64 8, ptr nonnull %9) #7
  %54 = icmp slt i32 %.0.i, 0
  br i1 %54, label %100, label %55

55:                                               ; preds = %convert_der_to_raw_single_int.exit
  %56 = load ptr, ptr %12, align 8, !tbaa !15
  %57 = zext nneg i32 %.0.i to i64
  %58 = getelementptr inbounds nuw i8, ptr %56, i64 %57
  store ptr %58, ptr %12, align 8, !tbaa !15
  %59 = load i64, ptr %13, align 8, !tbaa !11
  %60 = sub i64 %59, %57
  store i64 %60, ptr %13, align 8, !tbaa !11
  %61 = getelementptr inbounds nuw i8, ptr %11, i64 %15
  call void @llvm.lifetime.start.p0(i64 8, ptr nonnull %7) #7
  store ptr %58, ptr %7, align 8, !tbaa !15
  call void @llvm.lifetime.start.p0(i64 8, ptr nonnull %8) #7
  %62 = getelementptr inbounds nuw i8, ptr %56, i64 %59
  %63 = call i32 @mbedtls_asn1_get_tag(ptr noundef nonnull %7, ptr noundef %62, ptr noundef nonnull %8, i32 noundef 2) #7
  %.not.i33 = icmp eq i32 %63, 0
  br i1 %.not.i33, label %64, label %convert_der_to_raw_single_int.exit38

64:                                               ; preds = %55
  %65 = load i64, ptr %8, align 8, !tbaa !11
  %66 = icmp eq i64 %65, 0
  br i1 %66, label %convert_der_to_raw_single_int.exit38.thread, label %67

67:                                               ; preds = %64
  %68 = load ptr, ptr %7, align 8, !tbaa !15
  %69 = load i8, ptr %68, align 1, !tbaa !13
  %.not12.i35 = icmp sgt i8 %69, -1
  br i1 %.not12.i35, label %70, label %convert_der_to_raw_single_int.exit38.thread

70:                                               ; preds = %67
  %71 = icmp eq i8 %69, 0
  br i1 %71, label %72, label %78

72:                                               ; preds = %70
  %73 = getelementptr inbounds nuw i8, ptr %68, i64 1
  store ptr %73, ptr %7, align 8, !tbaa !15
  %74 = add i64 %65, -1
  store i64 %74, ptr %8, align 8, !tbaa !11
  %.not13.i37 = icmp eq i64 %74, 0
  br i1 %.not13.i37, label %.thread.i36, label %75

75:                                               ; preds = %72
  %76 = load i8, ptr %73, align 1, !tbaa !13
  %77 = icmp eq i8 %76, 0
  br i1 %77, label %convert_der_to_raw_single_int.exit38.thread, label %78

78:                                               ; preds = %75, %70
  %79 = phi ptr [ %73, %75 ], [ %68, %70 ]
  %80 = phi i64 [ %74, %75 ], [ %65, %70 ]
  %81 = icmp ugt i64 %80, %15
  br i1 %81, label %convert_der_to_raw_single_int.exit38.thread, label %.thread.i36

.thread.i36:                                      ; preds = %78, %72
  %82 = phi i64 [ %80, %78 ], [ 0, %72 ]
  %83 = phi ptr [ %79, %78 ], [ %73, %72 ]
  %84 = sub nuw nsw i64 %15, %82
  %85 = getelementptr inbounds nuw i8, ptr %61, i64 %84
  call void @llvm.memcpy.p0.p0.i64(ptr nonnull align 1 %85, ptr nonnull align 1 %83, i64 %82, i1 false)
  %86 = getelementptr inbounds nuw i8, ptr %83, i64 %82
  %87 = ptrtoint ptr %86 to i64
  %88 = ptrtoint ptr %58 to i64
  %89 = sub i64 %87, %88
  %90 = trunc i64 %89 to i32
  br label %convert_der_to_raw_single_int.exit38

convert_der_to_raw_single_int.exit38.thread:      ; preds = %67, %64, %75, %78
  call void @llvm.lifetime.end.p0(i64 8, ptr nonnull %8) #7
  call void @llvm.lifetime.end.p0(i64 8, ptr nonnull %7) #7
  br label %100

convert_der_to_raw_single_int.exit38:             ; preds = %55, %.thread.i36
  %.0.i34 = phi i32 [ %90, %.thread.i36 ], [ %63, %55 ]
  call void @llvm.lifetime.end.p0(i64 8, ptr nonnull %8) #7
  call void @llvm.lifetime.end.p0(i64 8, ptr nonnull %7) #7
  %91 = icmp slt i32 %.0.i34, 0
  br i1 %91, label %100, label %92

92:                                               ; preds = %convert_der_to_raw_single_int.exit38
  %93 = load ptr, ptr %12, align 8, !tbaa !15
  %94 = zext nneg i32 %.0.i34 to i64
  %95 = getelementptr inbounds nuw i8, ptr %93, i64 %94
  %96 = ptrtoint ptr %95 to i64
  %97 = ptrtoint ptr %1 to i64
  %98 = sub i64 %96, %97
  %.not32 = icmp eq i64 %98, %2
  br i1 %.not32, label %99, label %100

99:                                               ; preds = %92
  call void @llvm.memcpy.p0.p0.i64(ptr align 1 %3, ptr nonnull align 16 %11, i64 %16, i1 false)
  store i64 %16, ptr %5, align 8, !tbaa !11
  br label %100

100:                                              ; preds = %convert_der_to_raw_single_int.exit38.thread, %convert_der_to_raw_single_int.exit.thread, %92, %convert_der_to_raw_single_int.exit38, %convert_der_to_raw_single_int.exit, %19, %6, %99
  %.0 = phi i32 [ 0, %99 ], [ -108, %6 ], [ %21, %19 ], [ %.0.i, %convert_der_to_raw_single_int.exit ], [ %.0.i34, %convert_der_to_raw_single_int.exit38 ], [ -102, %92 ], [ -104, %convert_der_to_raw_single_int.exit.thread ], [ -104, %convert_der_to_raw_single_int.exit38.thread ]
  call void @llvm.lifetime.end.p0(i64 8, ptr nonnull %13) #7
  call void @llvm.lifetime.end.p0(i64 8, ptr nonnull %12) #7
  call void @llvm.lifetime.end.p0(i64 132, ptr nonnull %11) #7
  ret i32 %.0
}